target datalayout = "e-m:e-p270:32:32-p271:32:32-p272:64:64-i64:64-i128:128-f80:128-n8:16:32:64-S128"
target triple = "x86_64-unknown-linux-gnu"

%struct.LZ4_streamDecode_t_internal = type { ptr, i64, ptr, i64 }

; Function Attrs: fn_ret_thunk_extern nounwind null_pointer_is_valid
define dso_local i32 @LZ4_setStreamDecode(ptr noundef %0, ptr noundef %1, i32 noundef %2) #0 align 16 {
  %4 = alloca ptr, align 8
  %5 = alloca ptr, align 8
  %6 = alloca i32, align 4
  %7 = alloca ptr, align 8
  store ptr %0, ptr %4, align 8
  store ptr %1, ptr %5, align 8
  store i32 %2, ptr %6, align 4
  store ptr null, ptr %7, align 8, !annotation !5
  %8 = load ptr, ptr %4, align 8
  store ptr %8, ptr %7, align 8
  %9 = load i32, ptr %6, align 4
  %10 = sext i32 %9 to i64
  %11 = load ptr, ptr %7, align 8
  %12 = getelementptr inbounds %struct.LZ4_streamDecode_t_internal, ptr %11, i32 0, i32 3
  store i64 %10, ptr %12, align 8
  %13 = load ptr, ptr %5, align 8
  %14 = load i32, ptr %6, align 4
  %15 = sext i32 %14 to i64
  %16 = getelementptr i8, ptr %13, i64 %15
  %17 = load ptr, ptr %7, align 8
  %18 = getelementptr inbounds %struct.LZ4_streamDecode_t_internal, ptr %17, i32 0, i32 2
  store ptr %16, ptr %18, align 8
  %19 = load ptr, ptr %7, align 8
  %20 = getelementptr inbounds %struct.LZ4_streamDecode_t_internal, ptr %19, i32 0, i32 0
  store ptr null, ptr %20, align 8
  %21 = load ptr, ptr %7, align 8
  %22 = getelementptr inbounds %struct.LZ4_streamDecode_t_internal, ptr %21, i32 0, i32 1
  store i64 0, ptr %22, align 8
  ret i32 1
}