; Function Attrs: fn_ret_thunk_extern mustprogress nofree norecurse nosync nounwind null_pointer_is_valid willreturn memory(argmem: write)
define dso_local noundef i32 @LZ4_setStreamDecode(ptr nocapture noundef writeonly %0, ptr noundef %1, i32 noundef %2) #1 align 16 {
  %4 = sext i32 %2 to i64
  %5 = getelementptr inbounds i8, ptr %0, i64 24
  store i64 %4, ptr %5, align 8
  %6 = getelementptr i8, ptr %1, i64 %4
  %7 = getelementptr inbounds i8, ptr %0, i64 16
  store ptr %6, ptr %7, align 8
  tail call void @llvm.memset.p0.i64(ptr noundef align 8 dereferenceable(16) %0, i8 0, i64 16, i1 false)
  ret i32 1
}